Certificate:
    Data:
        Version: 3 (0x2)
        Serial Number:
            b4:1e:b7:37:6c:c0:31:18:49:0f:91:92:b9:de:7f:a2
        Signature Algorithm: sha256WithRSAEncryption
        Issuer: C=FR, ST=Toulouse, L=TLS, O=Copyleft Certificate Co, OU=My Organizational Unit, CN=Easy-RSA CA/emailAddress=me@example.net
        Validity
            Not Before: Nov  7 20:27:46 2020 GMT
            Not After : Feb 10 20:27:46 2023 GMT
        Subject: C=FR, ST=Toulouse, L=TLS, O=Copyleft Certificate Co, OU=My Organizational Unit, CN=ClientCert/emailAddress=me@example.net
        Subject Public Key Info:
            Public Key Algorithm: rsaEncryption
                RSA Public-Key: (2048 bit)
                Modulus:
                    00:b0:10:87:3d:2e:75:02:6f:09:15:ed:ed:7d:b3:
                    0d:4c:76:0f:aa:41:88:c4:a2:ab:a2:9a:b7:63:46:
                    4a:66:d3:e4:55:d8:07:ba:a2:c8:10:32:7c:83:d1:
                    4e:d7:53:b8:f4:5f:2f:aa:43:73:ae:1a:2e:48:75:
                    c7:48:0f:49:7d:ff:9b:36:8d:0d:ea:b6:94:2f:6b:
                    7d:d2:b7:85:bf:23:2c:40:04:73:50:51:e7:54:c0:
                    71:38:80:2c:58:eb:2e:a8:36:a0:d6:32:f3:c8:64:
                    6c:d7:03:f6:7a:44:7c:c7:9e:7b:2c:92:8f:ad:e4:
                    05:eb:63:42:3a:00:19:61:78:e1:74:e6:89:49:10:
                    93:fb:03:95:2e:c5:b8:56:7d:60:cc:10:7c:86:0e:
                    ca:d4:67:06:ec:70:97:5a:a3:d3:72:47:9b:54:c1:
                    17:b1:96:66:d3:27:dd:08:b8:c1:47:60:dd:48:15:
                    63:dc:80:b8:a7:69:f7:f5:6a:60:6b:6b:91:e3:61:
                    e3:96:07:57:b3:ed:6d:aa:69:e5:eb:b5:3f:6c:0b:
                    1d:de:b3:28:3f:db:ef:81:75:24:19:d4:5c:1b:69:
                    cc:30:37:13:1c:61:9c:25:51:13:ea:eb:a8:aa:36:
                    d8:86:65:b8:59:48:12:a9:a8:be:7b:a1:cb:e3:ae:
                    98:09
                Exponent: 65537 (0x10001)
        X509v3 extensions:
            X509v3 Basic Constraints: 
                CA:FALSE
            X509v3 Subject Key Identifier: 
                CD:D7:9E:60:46:A2:3E:79:C4:B9:DF:6A:3A:10:DD:3C:6F:19:57:9A
            X509v3 Authority Key Identifier: 
                keyid:64:C8:4C:50:3D:29:03:B3:E9:E7:50:98:F0:F3:A2:67:19:14:DE:93
                DirName:/C=FR/ST=Toulouse/L=TLS/O=Copyleft Certificate Co/OU=My Organizational Unit/CN=Easy-RSA CA/emailAddress=me@example.net
                serial:27:92:77:E6:F3:CD:77:AF:AE:18:63:D0:2F:6E:87:6D:64:93:FF:27

            X509v3 Extended Key Usage: 
                TLS Web Client Authentication
            X509v3 Key Usage: 
                Digital Signature
    Signature Algorithm: sha256WithRSAEncryption
         1d:58:c3:2b:be:22:89:f3:16:f7:42:28:1c:70:6d:53:11:7e:
         49:68:86:92:b5:e5:39:20:82:7c:bb:8a:20:0d:00:c7:52:15:
         81:d8:14:c8:3b:b2:c0:a1:30:44:7f:da:ab:ea:2b:1f:a6:11:
         8e:0f:42:a5:ae:b3:18:a4:72:39:ce:6e:c6:10:c1:1d:4a:7b:
         5c:b5:b6:3f:4e:fd:7a:e6:0a:6c:b9:1a:9d:bd:1b:3c:0d:2b:
         85:e7:e5:86:25:9f:39:85:ab:b5:0b:6f:3c:56:23:97:56:dc:
         68:9d:10:45:50:cc:e8:e0:c4:79:4d:b3:ef:e8:4c:13:4b:f0:
         69:17:e9:e6:f2:91:68:5e:63:b4:70:44:96:88:3b:ce:e0:56:
         28:d6:12:13:fd:c2:4b:ba:4b:0b:3b:39:37:a3:08:21:55:83:
         ba:12:96:84:27:06:f7:d1:61:6d:03:2b:a7:6d:ea:b2:42:40:
         ee:e6:2f:59:fb:a8:89:e2:1b:85:74:4a:c4:09:4d:be:86:c5:
         ca:61:15:5f:21:d3:b1:ef:e6:34:96:bb:63:55:21:15:ae:13:
         ba:95:5b:cc:30:45:e0:e6:96:ac:6a:13:8b:57:11:94:fd:a1:
         a4:85:e7:b1:21:d3:7a:fd:8e:0f:be:02:a2:e9:71:09:df:56:
         ae:6a:ec:0f
-----BEGIN CERTIFICATE-----
MIIFEzCCA/ugAwIBAgIRALQetzdswDEYSQ+Rkrnef6IwDQYJKoZIhvcNAQELBQAw
gaYxCzAJBgNVBAYTAkZSMREwDwYDVQQIDAhUb3Vsb3VzZTEMMAoGA1UEBwwDVExT
MSAwHgYDVQQKDBdDb3B5bGVmdCBDZXJ0aWZpY2F0ZSBDbzEfMB0GA1UECwwWTXkg
T3JnYW5pemF0aW9uYWwgVW5pdDEUMBIGA1UEAwwLRWFzeS1SU0EgQ0ExHTAbBgkq
hkiG9w0BCQEWDm1lQGV4YW1wbGUubmV0MB4XDTIwMTEwNzIwMjc0NloXDTIzMDIx
MDIwMjc0NlowgaUxCzAJBgNVBAYTAkZSMREwDwYDVQQIDAhUb3Vsb3VzZTEMMAoG
A1UEBwwDVExTMSAwHgYDVQQKDBdDb3B5bGVmdCBDZXJ0aWZpY2F0ZSBDbzEfMB0G
A1UECwwWTXkgT3JnYW5pemF0aW9uYWwgVW5pdDETMBEGA1UEAwwKQ2xpZW50Q2Vy
dDEdMBsGCSqGSIb3DQEJARYObWVAZXhhbXBsZS5uZXQwggEiMA0GCSqGSIb3DQEB
AQUAA4IBDwAwggEKAoIBAQCwEIc9LnUCbwkV7e19sw1Mdg+qQYjEoquimrdjRkpm
0+RV2Ae6osgQMnyD0U7XU7j0Xy+qQ3OuGi5IdcdID0l9/5s2jQ3qtpQva33St4W/
IyxABHNQUedUwHE4gCxY6y6oNqDWMvPIZGzXA/Z6RHzHnnssko+t5AXrY0I6ABlh
eOF05olJEJP7A5UuxbhWfWDMEHyGDsrUZwbscJdao9NyR5tUwRexlmbTJ90IuMFH
YN1IFWPcgLinaff1amBra5HjYeOWB1ez7W2qaeXrtT9sCx3esyg/2++BdSQZ1Fwb
acwwNxMcYZwlURPq66iqNtiGZbhZSBKpqL57ocvjrpgJAgMBAAGjggE5MIIBNTAJ
BgNVHRMEAjAAMB0GA1UdDgQWBBTN155gRqI+ecS532o6EN08bxlXmjCB5gYDVR0j
BIHeMIHbgBRkyExQPSkDs+nnUJjw86JnGRTek6GBrKSBqTCBpjELMAkGA1UEBhMC
RlIxETAPBgNVBAgMCFRvdWxvdXNlMQwwCgYDVQQHDANUTFMxIDAeBgNVBAoMF0Nv
cHlsZWZ0IENlcnRpZmljYXRlIENvMR8wHQYDVQQLDBZNeSBPcmdhbml6YXRpb25h
bCBVbml0MRQwEgYDVQQDDAtFYXN5LVJTQSBDQTEdMBsGCSqGSIb3DQEJARYObWVA
ZXhhbXBsZS5uZXSCFCeSd+bzzXevrhhj0C9uh21kk/8nMBMGA1UdJQQMMAoGCCsG
AQUFBwMCMAsGA1UdDwQEAwIHgDANBgkqhkiG9w0BAQsFAAOCAQEAHVjDK74iifMW
90IoHHBtUxF+SWiGkrXlOSCCfLuKIA0Ax1IVgdgUyDuywKEwRH/aq+orH6YRjg9C
pa6zGKRyOc5uxhDBHUp7XLW2P079euYKbLkanb0bPA0rheflhiWfOYWrtQtvPFYj
l1bcaJ0QRVDM6ODEeU2z7+hME0vwaRfp5vKRaF5jtHBElog7zuBWKNYSE/3CS7pL
Czs5N6MIIVWDuhKWhCcG99FhbQMrp23qskJA7uYvWfuoieIbhXRKxAlNvobFymEV
XyHTse/mNJa7Y1UhFa4TupVbzDBF4OaWrGoTi1cRlP2hpIXnsSHTev2OD74Coulx
Cd9WrmrsDw==
-----END CERTIFICATE-----
