Certificate:
    Data:
        Version: 3 (0x2)
        Serial Number:
            7d:99:3f:f4:67:da:d8:7d:a7:b4:6e:53:ba:47:08:00
        Signature Algorithm: sha256WithRSAEncryption
        Issuer: C=FR, ST=Toulouse, L=TLS, O=Copyleft Certificate Co, OU=My Organizational Unit, CN=Easy-RSA CA/emailAddress=me@example.net
        Validity
            Not Before: Nov  7 20:27:13 2020 GMT
            Not After : Feb 10 20:27:13 2023 GMT
        Subject: C=FR, ST=Toulouse, L=TLS, O=Copyleft Certificate Co, OU=My Organizational Unit, CN=ServerCert/emailAddress=me@example.net
        Subject Public Key Info:
            Public Key Algorithm: rsaEncryption
                RSA Public-Key: (2048 bit)
                Modulus:
                    00:be:2e:88:7e:e0:34:29:5c:fc:46:7e:94:86:1c:
                    9f:50:62:a1:72:67:99:d2:54:53:3e:22:e7:0a:7b:
                    e2:01:d8:a3:ba:d9:72:1e:3a:ee:ca:80:c1:61:c9:
                    31:3c:f5:87:b0:45:30:2c:4b:d3:fb:d8:cf:30:8f:
                    f9:58:8e:d6:57:28:7a:d6:fd:fd:28:a0:1d:75:3f:
                    25:2b:66:33:b2:cf:ab:69:fe:9e:57:0d:8a:fd:6a:
                    f3:40:9b:bc:fc:8d:19:72:cc:58:5d:01:fe:c3:da:
                    c6:c7:d4:96:5f:ed:73:be:cc:82:9f:d6:fa:5b:91:
                    d6:e4:6a:ff:9b:07:8b:57:2e:a6:f6:e6:fc:63:db:
                    c7:b2:d4:38:f8:b7:cb:46:9e:a4:4f:24:ac:ba:3f:
                    cc:22:8a:ee:cd:52:4d:ea:98:3d:48:c6:41:31:6d:
                    d7:e0:43:93:3a:c4:06:71:c8:75:47:13:9d:53:2c:
                    ca:20:c6:5f:56:db:39:0a:0f:d8:68:82:2c:c0:e5:
                    0c:05:6f:16:1e:68:72:5d:7a:94:c5:b1:f4:6f:2a:
                    1a:3b:fc:14:5c:fa:fb:70:11:69:1f:30:f8:65:10:
                    17:4a:20:69:2f:7b:34:52:a2:45:cd:1e:97:82:5f:
                    b7:15:29:2e:86:fd:cc:2b:7c:fd:d6:38:5f:b1:8f:
                    de:7d
                Exponent: 65537 (0x10001)
        X509v3 extensions:
            X509v3 Basic Constraints: 
                CA:FALSE
            X509v3 Subject Key Identifier: 
                FF:79:9C:4F:E9:78:9D:83:09:51:53:7B:17:CA:6B:0A:37:14:14:9A
            X509v3 Authority Key Identifier: 
                keyid:64:C8:4C:50:3D:29:03:B3:E9:E7:50:98:F0:F3:A2:67:19:14:DE:93
                DirName:/C=FR/ST=Toulouse/L=TLS/O=Copyleft Certificate Co/OU=My Organizational Unit/CN=Easy-RSA CA/emailAddress=me@example.net
                serial:27:92:77:E6:F3:CD:77:AF:AE:18:63:D0:2F:6E:87:6D:64:93:FF:27

            X509v3 Extended Key Usage: 
                TLS Web Server Authentication
            X509v3 Key Usage: 
                Digital Signature, Key Encipherment
            X509v3 Subject Alternative Name: 
                DNS:ServerCert
    Signature Algorithm: sha256WithRSAEncryption
         2d:42:49:96:2c:ec:5f:31:41:cb:13:d6:56:2c:b6:c9:57:44:
         28:55:c1:42:2a:e0:d5:0a:2a:87:d9:62:ee:fa:71:bb:78:65:
         ee:98:4b:88:09:e3:f1:3e:5f:ec:c9:ff:1c:16:af:b3:e2:42:
         26:a4:7c:be:93:40:84:f9:18:31:84:a4:76:a2:20:0b:3c:ad:
         88:c4:f2:63:fc:28:3f:6f:9f:9b:36:47:75:6c:4b:c9:08:9f:
         d2:19:9d:e4:01:ca:95:ea:3f:bd:f3:70:68:0e:26:4d:41:a4:
         d3:58:f9:31:99:34:e3:0d:d5:e5:ce:c9:4a:0b:bb:4c:64:ff:
         13:fe:67:f7:5b:9b:00:7c:65:b0:4e:3c:0a:67:3a:7e:1e:27:
         77:f0:96:74:ac:e4:29:8c:77:59:e7:ad:53:86:ce:1e:1e:82:
         d8:a0:f5:00:5e:40:95:1c:61:61:e3:8b:3a:01:ff:08:94:01:
         74:92:98:12:37:ef:ff:3d:37:48:4f:ba:7e:cd:cd:8f:11:2c:
         9d:c4:6c:a9:a2:77:9e:0b:6d:7b:e2:59:b3:b8:d8:37:27:dd:
         50:6f:54:95:3e:6c:6a:13:78:f8:73:d5:cb:62:02:15:05:81:
         c3:af:81:80:fc:80:77:6d:3f:3f:84:df:2e:9a:46:36:58:74:
         84:1d:52:73
-----BEGIN CERTIFICATE-----
MIIFKTCCBBGgAwIBAgIQfZk/9Gfa2H2ntG5TukcIADANBgkqhkiG9w0BAQsFADCB
pjELMAkGA1UEBhMCRlIxETAPBgNVBAgMCFRvdWxvdXNlMQwwCgYDVQQHDANUTFMx
IDAeBgNVBAoMF0NvcHlsZWZ0IENlcnRpZmljYXRlIENvMR8wHQYDVQQLDBZNeSBP
cmdhbml6YXRpb25hbCBVbml0MRQwEgYDVQQDDAtFYXN5LVJTQSBDQTEdMBsGCSqG
SIb3DQEJARYObWVAZXhhbXBsZS5uZXQwHhcNMjAxMTA3MjAyNzEzWhcNMjMwMjEw
MjAyNzEzWjCBpTELMAkGA1UEBhMCRlIxETAPBgNVBAgMCFRvdWxvdXNlMQwwCgYD
VQQHDANUTFMxIDAeBgNVBAoMF0NvcHlsZWZ0IENlcnRpZmljYXRlIENvMR8wHQYD
VQQLDBZNeSBPcmdhbml6YXRpb25hbCBVbml0MRMwEQYDVQQDDApTZXJ2ZXJDZXJ0
MR0wGwYJKoZIhvcNAQkBFg5tZUBleGFtcGxlLm5ldDCCASIwDQYJKoZIhvcNAQEB
BQADggEPADCCAQoCggEBAL4uiH7gNClc/EZ+lIYcn1BioXJnmdJUUz4i5wp74gHY
o7rZch467sqAwWHJMTz1h7BFMCxL0/vYzzCP+ViO1lcoetb9/SigHXU/JStmM7LP
q2n+nlcNiv1q80CbvPyNGXLMWF0B/sPaxsfUll/tc77Mgp/W+luR1uRq/5sHi1cu
pvbm/GPbx7LUOPi3y0aepE8krLo/zCKK7s1STeqYPUjGQTFt1+BDkzrEBnHIdUcT
nVMsyiDGX1bbOQoP2GiCLMDlDAVvFh5ocl16lMWx9G8qGjv8FFz6+3ARaR8w+GUQ
F0ogaS97NFKiRc0el4JftxUpLob9zCt8/dY4X7GP3n0CAwEAAaOCAVAwggFMMAkG
A1UdEwQCMAAwHQYDVR0OBBYEFP95nE/peJ2DCVFTexfKawo3FBSaMIHmBgNVHSME
gd4wgduAFGTITFA9KQOz6edQmPDzomcZFN6ToYGspIGpMIGmMQswCQYDVQQGEwJG
UjERMA8GA1UECAwIVG91bG91c2UxDDAKBgNVBAcMA1RMUzEgMB4GA1UECgwXQ29w
eWxlZnQgQ2VydGlmaWNhdGUgQ28xHzAdBgNVBAsMFk15IE9yZ2FuaXphdGlvbmFs
IFVuaXQxFDASBgNVBAMMC0Vhc3ktUlNBIENBMR0wGwYJKoZIhvcNAQkBFg5tZUBl
eGFtcGxlLm5ldIIUJ5J35vPNd6+uGGPQL26HbWST/ycwEwYDVR0lBAwwCgYIKwYB
BQUHAwEwCwYDVR0PBAQDAgWgMBUGA1UdEQQOMAyCClNlcnZlckNlcnQwDQYJKoZI
hvcNAQELBQADggEBAC1CSZYs7F8xQcsT1lYstslXRChVwUIq4NUKKofZYu76cbt4
Ze6YS4gJ4/E+X+zJ/xwWr7PiQiakfL6TQIT5GDGEpHaiIAs8rYjE8mP8KD9vn5s2
R3VsS8kIn9IZneQBypXqP73zcGgOJk1BpNNY+TGZNOMN1eXOyUoLu0xk/xP+Z/db
mwB8ZbBOPApnOn4eJ3fwlnSs5CmMd1nnrVOGzh4egtig9QBeQJUcYWHjizoB/wiU
AXSSmBI37/89N0hPun7NzY8RLJ3EbKmid54LbXviWbO42Dcn3VBvVJU+bGoTePhz
1ctiAhUFgcOvgYD8gHdtPz+E3y6aRjZYdIQdUnM=
-----END CERTIFICATE-----
